target datalayout = "e-m:e-p270:32:32-p271:32:32-p272:64:64-i64:64-i128:128-f80:128-n8:16:32:64-S128"
target triple = "x86_64-pc-linux-gnu"

%"class.pxrInternal_v0_24__pxrReserved__::TfToken" = type { %"class.pxrInternal_v0_24__pxrReserved__::TfPointerAndBits" }
%"class.pxrInternal_v0_24__pxrReserved__::TfPointerAndBits" = type { ptr }
%"class.std::__shared_count" = type { ptr }
%"class.pxrInternal_v0_24__pxrReserved__::HdDataSourceBase" = type { ptr }
%"class.pxrInternal_v0_24__pxrReserved__::VtArray" = type { %"class.pxrInternal_v0_24__pxrReserved__::Vt_ArrayBase", ptr }
%"class.pxrInternal_v0_24__pxrReserved__::Vt_ArrayBase" = type { %"struct.pxrInternal_v0_24__pxrReserved__::Vt_ShapeData", ptr }
%"struct.pxrInternal_v0_24__pxrReserved__::Vt_ShapeData" = type { i64, [3 x i32] }
%"class.pxrInternal_v0_24__pxrReserved__::HdSampledDataSource" = type { %"class.pxrInternal_v0_24__pxrReserved__::HdDataSourceBase" }
%"class.std::shared_ptr.103" = type { %"class.std::__shared_ptr.104" }
%"class.std::__shared_ptr.104" = type { ptr, %"class.std::__shared_count" }
%"class.pxrInternal_v0_24__pxrReserved__::(anonymous namespace)::_ExpandedDataSource.638" = type <{ %"class.pxrInternal_v0_24__pxrReserved__::HdTypedSampledDataSource.639", %"class.std::shared_ptr.103", %"class.pxrInternal_v0_24__pxrReserved__::TfToken", %"class.pxrInternal_v0_24__pxrReserved__::VtArray", %"class.pxrInternal_v0_24__pxrReserved__::VtArray", i64, i8, [7 x i8] }>
%"class.pxrInternal_v0_24__pxrReserved__::HdTypedSampledDataSource.639" = type { %"class.pxrInternal_v0_24__pxrReserved__::HdSampledDataSource" }

; Function Attrs: mustprogress nounwind uwtable
define linkonce_odr noundef ptr @_ZNKSt12__shared_ptrIN32pxrInternal_v0_24__pxrReserved__19HdSampledDataSourceELN9__gnu_cxx12_Lock_policyE2EE3getEv(ptr noundef nonnull align 8 dereferenceable(16) %0) #4 comdat align 2 {
  %2 = alloca ptr, align 8
  store ptr %0, ptr %2, align 8
  %3 = load ptr, ptr %2, align 8
  %4 = getelementptr inbounds nuw %"class.std::__shared_ptr.104", ptr %3, i32 0, i32 0
  %5 = load ptr, ptr %4, align 8
  ret ptr %5
}

; Function Attrs: mustprogress nounwind uwtable
define linkonce_odr noundef ptr @_ZNKSt19__shared_ptr_accessIN32pxrInternal_v0_24__pxrReserved__19HdSampledDataSourceELN9__gnu_cxx12_Lock_policyE2ELb0ELb0EE6_M_getEv(ptr noundef nonnull align 1 dereferenceable(1) %0) #4 comdat align 2 {
  %2 = alloca ptr, align 8
  store ptr %0, ptr %2, align 8
  %3 = load ptr, ptr %2, align 8
  %4 = call noundef ptr @_ZNKSt12__shared_ptrIN32pxrInternal_v0_24__pxrReserved__19HdSampledDataSourceELN9__gnu_cxx12_Lock_policyE2EE3getEv(ptr noundef nonnull align 8 dereferenceable(16) %3) #14
  ret ptr %4
}

; Function Attrs: mustprogress nounwind uwtable
define linkonce_odr noundef ptr @_ZNKSt19__shared_ptr_accessIN32pxrInternal_v0_24__pxrReserved__19HdSampledDataSourceELN9__gnu_cxx12_Lock_policyE2ELb0ELb0EEptEv(ptr noundef nonnull align 1 dereferenceable(1) %0) #4 comdat align 2 {
  %2 = alloca ptr, align 8
  store ptr %0, ptr %2, align 8
  %3 = load ptr, ptr %2, align 8
  %4 = call noundef ptr @_ZNKSt19__shared_ptr_accessIN32pxrInternal_v0_24__pxrReserved__19HdSampledDataSourceELN9__gnu_cxx12_Lock_policyE2ELb0ELb0EE6_M_getEv(ptr noundef nonnull align 1 dereferenceable(1) %3) #14
  ret ptr %4
}

; Function Attrs: mustprogress uwtable
define internal noundef zeroext i1 @_ZN32pxrInternal_v0_24__pxrReserved__12_GLOBAL__N_119_ExpandedDataSourceIhE37GetContributingSampleTimesForIntervalEffPSt6vectorIfSaIfEE(ptr noundef nonnull align 8 dereferenceable(128) %0, float noundef %1, float noundef %2, ptr noundef %3) unnamed_addr #0 align 2 {
  %5 = alloca ptr, align 8
  %6 = alloca float, align 4
  %7 = alloca float, align 4
  %8 = alloca ptr, align 8
  store ptr %0, ptr %5, align 8
  store float %1, ptr %6, align 4
  store float %2, ptr %7, align 4
  store ptr %3, ptr %8, align 8
  %9 = load ptr, ptr %5, align 8
  %10 = getelementptr inbounds nuw %"class.pxrInternal_v0_24__pxrReserved__::(anonymous namespace)::_ExpandedDataSource.638", ptr %9, i32 0, i32 1
  %11 = call noundef ptr @_ZNKSt19__shared_ptr_accessIN32pxrInternal_v0_24__pxrReserved__19HdSampledDataSourceELN9__gnu_cxx12_Lock_policyE2ELb0ELb0EEptEv(ptr noundef nonnull align 1 dereferenceable(1) %10) #14
  %12 = load float, ptr %6, align 4
  %13 = load float, ptr %7, align 4
  %14 = load ptr, ptr %8, align 8
  %15 = load ptr, ptr %11, align 8
  %16 = getelementptr inbounds ptr, ptr %15, i64 3
  %17 = load ptr, ptr %16, align 8
  %18 = call noundef zeroext i1 %17(ptr noundef nonnull align 8 dereferenceable(8) %11, float noundef %12, float noundef %13, ptr noundef %14)
  ret i1 %18
}